target datalayout = "e-m:e-p270:32:32-p271:32:32-p272:64:64-i64:64-i128:128-f80:128-n8:16:32:64-S128"
target triple = "x86_64-pc-linux-gnu"

%"class.std::vector.3" = type { %"struct.std::_Vector_base.4" }
%"struct.std::_Vector_base.4" = type { %"struct.std::_Vector_base<int, std::allocator<int>>::_Vector_impl" }
%"struct.std::_Vector_base<int, std::allocator<int>>::_Vector_impl" = type { %"struct.std::_Vector_base<int, std::allocator<int>>::_Vector_impl_data" }
%"struct.std::_Vector_base<int, std::allocator<int>>::_Vector_impl_data" = type { ptr, ptr, ptr }
%"struct.Yosys::RTLIL::IdString" = type { i32 }
%"struct.std::pair.360" = type { %"struct.Yosys::RTLIL::IdString", [4 x i8], %"struct.(anonymous namespace)::mutate_once_queue_t.352" }
%"struct.(anonymous namespace)::mutate_once_queue_t.352" = type { %"class.Yosys::hashlib::dict.353" }
%"class.Yosys::hashlib::dict.353" = type <{ %"class.std::vector.3", %"class.std::vector.354", [8 x i8] }>
%"class.std::vector.354" = type { %"struct.std::_Vector_base.355" }
%"struct.std::_Vector_base.355" = type { %"struct.std::_Vector_base<Yosys::hashlib::dict<Yosys::RTLIL::IdString, (anonymous namespace)::mutate_queue_t>::entry_t, std::allocator<Yosys::hashlib::dict<Yosys::RTLIL::IdString, (anonymous namespace)::mutate_queue_t>::entry_t>>::_Vector_impl" }
%"struct.std::_Vector_base<Yosys::hashlib::dict<Yosys::RTLIL::IdString, (anonymous namespace)::mutate_queue_t>::entry_t, std::allocator<Yosys::hashlib::dict<Yosys::RTLIL::IdString, (anonymous namespace)::mutate_queue_t>::entry_t>>::_Vector_impl" = type { %"struct.std::_Vector_base<Yosys::hashlib::dict<Yosys::RTLIL::IdString, (anonymous namespace)::mutate_queue_t>::entry_t, std::allocator<Yosys::hashlib::dict<Yosys::RTLIL::IdString, (anonymous namespace)::mutate_queue_t>::entry_t>>::_Vector_impl_data" }
%"struct.std::_Vector_base<Yosys::hashlib::dict<Yosys::RTLIL::IdString, (anonymous namespace)::mutate_queue_t>::entry_t, std::allocator<Yosys::hashlib::dict<Yosys::RTLIL::IdString, (anonymous namespace)::mutate_queue_t>::entry_t>>::_Vector_impl_data" = type { ptr, ptr, ptr }

@_ZN5Yosys5RTLIL8IdString24global_refcount_storage_E = external global %"class.std::vector.3", align 8
@_ZN5Yosys5RTLIL8IdString17destruct_guard_okE = external global i8, align 1

; Function Attrs: mustprogress nounwind uwtable
define linkonce_odr void @_ZNSt15__new_allocatorIiE10deallocateEPim(ptr noundef nonnull align 1 dereferenceable(1) %0, ptr noundef %1, i64 noundef %2) #6 comdat align 2 {
  %4 = alloca ptr, align 8
  %5 = alloca ptr, align 8
  %6 = alloca i64, align 8
  store ptr %0, ptr %4, align 8, !tbaa !213
  store ptr %1, ptr %5, align 8, !tbaa !232
  store i64 %2, ptr %6, align 8, !tbaa !27
  %7 = load ptr, ptr %5, align 8, !tbaa !232
  %8 = load i64, ptr %6, align 8, !tbaa !27
  %9 = mul i64 %8, 4
  call void @_ZdlPvm(ptr noundef %7, i64 noundef %9) #23
  ret void
}

; Function Attrs: mustprogress uwtable
define linkonce_odr void @_ZNSt16allocator_traitsISaIiEE10deallocateERS0_Pim(ptr noundef nonnull align 1 dereferenceable(1) %0, ptr noundef %1, i64 noundef %2) #4 comdat align 2 {
  %4 = alloca ptr, align 8
  %5 = alloca ptr, align 8
  %6 = alloca i64, align 8
  store ptr %0, ptr %4, align 8, !tbaa !211
  store ptr %1, ptr %5, align 8, !tbaa !232
  store i64 %2, ptr %6, align 8, !tbaa !27
  %7 = load ptr, ptr %4, align 8, !tbaa !211
  %8 = load ptr, ptr %5, align 8, !tbaa !232
  %9 = load i64, ptr %6, align 8, !tbaa !27
  call void @_ZNSt15__new_allocatorIiE10deallocateEPim(ptr noundef nonnull align 1 dereferenceable(1) %7, ptr noundef %8, i64 noundef %9)
  ret void
}

; Function Attrs: mustprogress nounwind uwtable
define linkonce_odr void @_ZNSt12_Destroy_auxILb1EE9__destroyIPiEEvT_S3_(ptr noundef %0, ptr noundef %1) #6 comdat align 2 {
  %3 = alloca ptr, align 8
  %4 = alloca ptr, align 8
  store ptr %0, ptr %3, align 8, !tbaa !232
  store ptr %1, ptr %4, align 8, !tbaa !232
  ret void
}

; Function Attrs: mustprogress nounwind uwtable
define linkonce_odr void @_ZNSt15__new_allocatorIiED2Ev(ptr noundef nonnull align 1 dereferenceable(1) %0) unnamed_addr #6 comdat align 2 {
  %2 = alloca ptr, align 8
  store ptr %0, ptr %2, align 8, !tbaa !213
  ret void
}

; Function Attrs: mustprogress uwtable
define linkonce_odr void @_ZNSt12_Vector_baseIiSaIiEE13_M_deallocateEPim(ptr noundef nonnull align 8 dereferenceable(24) %0, ptr noundef %1, i64 noundef %2) #4 comdat align 2 {
  %4 = alloca ptr, align 8
  %5 = alloca ptr, align 8
  %6 = alloca i64, align 8
  store ptr %0, ptr %4, align 8, !tbaa !207
  store ptr %1, ptr %5, align 8, !tbaa !232
  store i64 %2, ptr %6, align 8, !tbaa !27
  %7 = load ptr, ptr %4, align 8
  %8 = load ptr, ptr %5, align 8, !tbaa !232
  %9 = icmp ne ptr %8, null
  br i1 %9, label %10, label %14

10:                                               ; preds = %3
  %11 = getelementptr inbounds nuw %"struct.std::_Vector_base.4", ptr %7, i32 0, i32 0
  %12 = load ptr, ptr %5, align 8, !tbaa !232
  %13 = load i64, ptr %6, align 8, !tbaa !27
  call void @_ZNSt16allocator_traitsISaIiEE10deallocateERS0_Pim(ptr noundef nonnull align 1 dereferenceable(1) %11, ptr noundef %12, i64 noundef %13)
  br label %14

14:                                               ; preds = %10, %3
  ret void
}

; Function Attrs: inlinehint mustprogress uwtable
define linkonce_odr void @_ZSt8_DestroyIPiEvT_S1_(ptr noundef %0, ptr noundef %1) #9 comdat {
  %3 = alloca ptr, align 8
  %4 = alloca ptr, align 8
  store ptr %0, ptr %3, align 8, !tbaa !232
  store ptr %1, ptr %4, align 8, !tbaa !232
  %5 = load ptr, ptr %3, align 8, !tbaa !232
  %6 = load ptr, ptr %4, align 8, !tbaa !232
  call void @_ZNSt12_Destroy_auxILb1EE9__destroyIPiEEvT_S3_(ptr noundef %5, ptr noundef %6)
  ret void
}

; Function Attrs: mustprogress nounwind uwtable
define linkonce_odr void @_ZNSt12_Vector_baseIiSaIiEED2Ev(ptr noundef nonnull align 8 dereferenceable(24) %0) unnamed_addr #6 comdat align 2 personality ptr @__gxx_personality_v0 {
  %2 = alloca ptr, align 8
  store ptr %0, ptr %2, align 8, !tbaa !207
  %3 = load ptr, ptr %2, align 8
  %4 = getelementptr inbounds nuw %"struct.std::_Vector_base.4", ptr %3, i32 0, i32 0
  %5 = getelementptr inbounds nuw %"struct.std::_Vector_base<int, std::allocator<int>>::_Vector_impl_data", ptr %4, i32 0, i32 0
  %6 = load ptr, ptr %5, align 8, !tbaa !228
  %7 = getelementptr inbounds nuw %"struct.std::_Vector_base.4", ptr %3, i32 0, i32 0
  %8 = getelementptr inbounds nuw %"struct.std::_Vector_base<int, std::allocator<int>>::_Vector_impl_data", ptr %7, i32 0, i32 2
  %9 = load ptr, ptr %8, align 8, !tbaa !233
  %10 = getelementptr inbounds nuw %"struct.std::_Vector_base.4", ptr %3, i32 0, i32 0
  %11 = getelementptr inbounds nuw %"struct.std::_Vector_base<int, std::allocator<int>>::_Vector_impl_data", ptr %10, i32 0, i32 0
  %12 = load ptr, ptr %11, align 8, !tbaa !228
  %13 = ptrtoint ptr %9 to i64
  %14 = ptrtoint ptr %12 to i64
  %15 = sub i64 %13, %14
  %16 = sdiv exact i64 %15, 4
  invoke void @_ZNSt12_Vector_baseIiSaIiEE13_M_deallocateEPim(ptr noundef nonnull align 8 dereferenceable(24) %3, ptr noundef %6, i64 noundef %16)
          to label %17 unwind label %19

17:                                               ; preds = %1
  %18 = getelementptr inbounds nuw %"struct.std::_Vector_base.4", ptr %3, i32 0, i32 0
  call void @_ZNSt15__new_allocatorIiED2Ev(ptr noundef nonnull align 8 dereferenceable(24) %18) #3
  ret void

19:                                               ; preds = %1
  %20 = landingpad { ptr, i32 }
          catch ptr null
  %21 = extractvalue { ptr, i32 } %20, 0
  call void @__clang_call_terminate(ptr %21) #22
  unreachable
}

; Function Attrs: inlinehint mustprogress uwtable
define linkonce_odr void @_ZSt8_DestroyIPiiEvT_S1_RSaIT0_E(ptr noundef %0, ptr noundef %1, ptr noundef nonnull align 1 dereferenceable(1) %2) #9 comdat {
  %4 = alloca ptr, align 8
  %5 = alloca ptr, align 8
  %6 = alloca ptr, align 8
  store ptr %0, ptr %4, align 8, !tbaa !232
  store ptr %1, ptr %5, align 8, !tbaa !232
  store ptr %2, ptr %6, align 8, !tbaa !211
  %7 = load ptr, ptr %4, align 8, !tbaa !232
  %8 = load ptr, ptr %5, align 8, !tbaa !232
  call void @_ZSt8_DestroyIPiEvT_S1_(ptr noundef %7, ptr noundef %8)
  ret void
}

; Function Attrs: mustprogress nounwind uwtable
define linkonce_odr noundef nonnull align 1 dereferenceable(1) ptr @_ZNSt12_Vector_baseIiSaIiEE19_M_get_Tp_allocatorEv(ptr noundef nonnull align 8 dereferenceable(24) %0) #6 comdat align 2 {
  %2 = alloca ptr, align 8
  store ptr %0, ptr %2, align 8, !tbaa !207
  %3 = load ptr, ptr %2, align 8
  %4 = getelementptr inbounds nuw %"struct.std::_Vector_base.4", ptr %3, i32 0, i32 0
  ret ptr %4
}

; Function Attrs: mustprogress nounwind uwtable
define linkonce_odr noundef nonnull align 4 dereferenceable(4) ptr @_ZNSt6vectorIiSaIiEEixEm(ptr noundef nonnull align 8 dereferenceable(24) %0, i64 noundef %1) #6 comdat align 2 {
  %3 = alloca ptr, align 8
  %4 = alloca i64, align 8
  store ptr %0, ptr %3, align 8, !tbaa !203
  store i64 %1, ptr %4, align 8, !tbaa !27
  %5 = load ptr, ptr %3, align 8
  %6 = getelementptr inbounds nuw %"struct.std::_Vector_base.4", ptr %5, i32 0, i32 0
  %7 = getelementptr inbounds nuw %"struct.std::_Vector_base<int, std::allocator<int>>::_Vector_impl_data", ptr %6, i32 0, i32 0
  %8 = load ptr, ptr %7, align 8, !tbaa !228
  %9 = load i64, ptr %4, align 8, !tbaa !27
  %10 = getelementptr inbounds nuw i32, ptr %8, i64 %9
  ret ptr %10
}

; Function Attrs: mustprogress nounwind uwtable
define linkonce_odr void @_ZNSt6vectorIiSaIiEED2Ev(ptr noundef nonnull align 8 dereferenceable(24) %0) unnamed_addr #6 comdat align 2 personality ptr @__gxx_personality_v0 {
  %2 = alloca ptr, align 8
  store ptr %0, ptr %2, align 8, !tbaa !203
  %3 = load ptr, ptr %2, align 8
  %4 = getelementptr inbounds nuw %"struct.std::_Vector_base.4", ptr %3, i32 0, i32 0
  %5 = getelementptr inbounds nuw %"struct.std::_Vector_base<int, std::allocator<int>>::_Vector_impl_data", ptr %4, i32 0, i32 0
  %6 = load ptr, ptr %5, align 8, !tbaa !228
  %7 = getelementptr inbounds nuw %"struct.std::_Vector_base.4", ptr %3, i32 0, i32 0
  %8 = getelementptr inbounds nuw %"struct.std::_Vector_base<int, std::allocator<int>>::_Vector_impl_data", ptr %7, i32 0, i32 1
  %9 = load ptr, ptr %8, align 8, !tbaa !229
  %10 = call noundef nonnull align 1 dereferenceable(1) ptr @_ZNSt12_Vector_baseIiSaIiEE19_M_get_Tp_allocatorEv(ptr noundef nonnull align 8 dereferenceable(24) %3) #3
  invoke void @_ZSt8_DestroyIPiiEvT_S1_RSaIT0_E(ptr noundef %6, ptr noundef %9, ptr noundef nonnull align 1 dereferenceable(1) %10)
          to label %11 unwind label %12

11:                                               ; preds = %1
  call void @_ZNSt12_Vector_baseIiSaIiEED2Ev(ptr noundef nonnull align 8 dereferenceable(24) %3) #3
  ret void

12:                                               ; preds = %1
  %13 = landingpad { ptr, i32 }
          catch ptr null
  %14 = extractvalue { ptr, i32 } %13, 0
  call void @__clang_call_terminate(ptr %14) #22
  unreachable
}

; Function Attrs: inlinehint mustprogress uwtable
define linkonce_odr void @_ZN5Yosys5RTLIL8IdString13put_referenceEi(i32 noundef %0) #9 comdat align 2 {
  %2 = alloca i32, align 4
  %3 = alloca ptr, align 8
  %4 = alloca i32, align 4
  store i32 %0, ptr %2, align 4, !tbaa !25
  %5 = load i8, ptr @_ZN5Yosys5RTLIL8IdString17destruct_guard_okE, align 1, !tbaa !93, !range !130, !noundef !131
  %6 = trunc i8 %5 to i1
  br i1 %6, label %7, label %10

7:                                                ; preds = %1
  %8 = load i32, ptr %2, align 4, !tbaa !25
  %9 = icmp ne i32 %8, 0
  br i1 %9, label %11, label %10

10:                                               ; preds = %7, %1
  br label %27

11:                                               ; preds = %7
  call void @llvm.lifetime.start.p0(i64 8, ptr %3) #3
  %12 = load i32, ptr %2, align 4, !tbaa !25
  %13 = sext i32 %12 to i64
  %14 = call noundef nonnull align 4 dereferenceable(4) ptr @_ZNSt6vectorIiSaIiEEixEm(ptr noundef nonnull align 8 dereferenceable(24) @_ZN5Yosys5RTLIL8IdString24global_refcount_storage_E, i64 noundef %13) #3
  store ptr %14, ptr %3, align 8, !tbaa !232
  %15 = load ptr, ptr %3, align 8, !tbaa !232
  %16 = load i32, ptr %15, align 4, !tbaa !25
  %17 = add nsw i32 %16, -1
  store i32 %17, ptr %15, align 4, !tbaa !25
  %18 = icmp sgt i32 %17, 0
  br i1 %18, label %19, label %20

19:                                               ; preds = %11
  store i32 1, ptr %4, align 4
  br label %25

20:                                               ; preds = %11
  br label %21

21:                                               ; preds = %20
  br label %22

22:                                               ; preds = %21
  br label %23

23:                                               ; preds = %22
  %24 = load i32, ptr %2, align 4, !tbaa !25
  call void @_ZN5Yosys5RTLIL8IdString14free_referenceEi(i32 noundef %24)
  store i32 0, ptr %4, align 4
  br label %25

25:                                               ; preds = %23, %19
  call void @llvm.lifetime.end.p0(i64 8, ptr %3) #3
  %26 = load i32, ptr %4, align 4
  switch i32 %26, label %28 [
    i32 0, label %27
    i32 1, label %27
  ]

27:                                               ; preds = %10, %25, %25
  ret void

28:                                               ; preds = %25
  unreachable
}

; Function Attrs: inlinehint mustprogress nounwind uwtable
define internal void @_ZN5Yosys7hashlib4dictINS_5RTLIL8IdStringEN12_GLOBAL__N_114mutate_queue_tENS0_8hash_opsIS3_EEED2Ev(ptr noundef nonnull align 8 dereferenceable(49) %0) unnamed_addr #7 align 2 {
  %2 = alloca ptr, align 8
  store ptr %0, ptr %2, align 8, !tbaa !1195
  %3 = load ptr, ptr %2, align 8
  %4 = getelementptr inbounds nuw %"class.Yosys::hashlib::dict.353", ptr %3, i32 0, i32 1
  call void @_ZNSt6vectorIN5Yosys7hashlib4dictINS0_5RTLIL8IdStringEN12_GLOBAL__N_114mutate_queue_tENS1_8hash_opsIS4_EEE7entry_tESaISA_EED2Ev(ptr noundef nonnull align 8 dereferenceable(24) %4) #3
  %5 = getelementptr inbounds nuw %"class.Yosys::hashlib::dict.353", ptr %3, i32 0, i32 0
  call void @_ZNSt6vectorIiSaIiEED2Ev(ptr noundef nonnull align 8 dereferenceable(24) %5) #3
  ret void
}

; Function Attrs: inlinehint mustprogress nounwind uwtable
define linkonce_odr void @_ZN5Yosys5RTLIL8IdStringD2Ev(ptr noundef nonnull align 4 dereferenceable(4) %0) unnamed_addr #7 comdat align 2 personality ptr @__gxx_personality_v0 {
  %2 = alloca ptr, align 8
  store ptr %0, ptr %2, align 8, !tbaa !89
  %3 = load ptr, ptr %2, align 8
  %4 = getelementptr inbounds nuw %"struct.Yosys::RTLIL::IdString", ptr %3, i32 0, i32 0
  %5 = load i32, ptr %4, align 4, !tbaa !200
  invoke void @_ZN5Yosys5RTLIL8IdString13put_referenceEi(i32 noundef %5)
          to label %6 unwind label %7

6:                                                ; preds = %1
  ret void

7:                                                ; preds = %1
  %8 = landingpad { ptr, i32 }
          catch ptr null
  %9 = extractvalue { ptr, i32 } %8, 0
  call void @__clang_call_terminate(ptr %9) #22
  unreachable
}

; Function Attrs: inlinehint mustprogress nounwind uwtable
define internal void @_ZN12_GLOBAL__N_119mutate_once_queue_tIN5Yosys5RTLIL8IdStringENS_14mutate_queue_tEED2Ev(ptr noundef nonnull align 8 dereferenceable(56) %0) unnamed_addr #7 align 2 {
  %2 = alloca ptr, align 8
  store ptr %0, ptr %2, align 8, !tbaa !1178
  %3 = load ptr, ptr %2, align 8
  %4 = getelementptr inbounds nuw %"struct.(anonymous namespace)::mutate_once_queue_t.352", ptr %3, i32 0, i32 0
  call void @_ZN5Yosys7hashlib4dictINS_5RTLIL8IdStringEN12_GLOBAL__N_114mutate_queue_tENS0_8hash_opsIS3_EEED2Ev(ptr noundef nonnull align 8 dereferenceable(49) %4) #3
  ret void
}

; Function Attrs: inlinehint mustprogress nounwind uwtable
define internal void @_ZNSt4pairIN5Yosys5RTLIL8IdStringEN12_GLOBAL__N_119mutate_once_queue_tIS2_NS3_14mutate_queue_tEEEED2Ev(ptr noundef nonnull align 8 dereferenceable(64) %0) unnamed_addr #7 align 2 {
  %2 = alloca ptr, align 8
  store ptr %0, ptr %2, align 8, !tbaa !1191
  %3 = load ptr, ptr %2, align 8
  %4 = getelementptr inbounds nuw %"struct.std::pair.360", ptr %3, i32 0, i32 2
  call void @_ZN12_GLOBAL__N_119mutate_once_queue_tIN5Yosys5RTLIL8IdStringENS_14mutate_queue_tEED2Ev(ptr noundef nonnull align 8 dereferenceable(56) %4) #3
  %5 = getelementptr inbounds nuw %"struct.std::pair.360", ptr %3, i32 0, i32 0
  call void @_ZN5Yosys5RTLIL8IdStringD2Ev(ptr noundef nonnull align 4 dereferenceable(4) %5) #3
  ret void
}